; Function Attrs: mustprogress uwtable
define noundef zeroext i1 @_ZN3zmq5rep_t8xhas_outEv(ptr noundef nonnull align 8 dereferenceable(2184) %this) unnamed_addr #0 align 2 {
entry:
  %_sending_reply = getelementptr inbounds i8, ptr %this, i64 2180
  %0 = load i8, ptr %_sending_reply, align 4
  %1 = and i8 %0, 1
  %tobool.not = icmp eq i8 %1, 0
  br i1 %tobool.not, label %return, label %if.end

if.end:                                           ; preds = %entry
  %call = tail call noundef zeroext i1 @_ZN3zmq8router_t8xhas_outEv(ptr noundef nonnull align 8 dereferenceable(2180) %this)
  br label %return

return:                                           ; preds = %entry, %if.end
  %retval.0 = phi i1 [ %call, %if.end ], [ false, %entry ]
  ret i1 %retval.0
}